target datalayout = "e-m:e-p270:32:32-p271:32:32-p272:64:64-i64:64-i128:128-f80:128-n8:16:32:64-S128"
target triple = "x86_64-pc-linux-gnu"

%"struct.faiss::BinaryInvertedListScanner" = type { ptr }
%"struct.faiss::(anonymous namespace)::IVFBinaryScannerL2.58" = type { %"struct.faiss::BinaryInvertedListScanner", %"struct.faiss::HammingComputer8", i64, i8, i64 }
%"struct.faiss::HammingComputer8" = type { i64 }

; Function Attrs: mustprogress nounwind uwtable
define linkonce_odr noundef zeroext i1 @_ZN5faiss4CMaxIilE4cmp2Eiill(i32 noundef %0, i32 noundef %1, i64 noundef %2, i64 noundef %3) #0 comdat align 2 {
  %5 = alloca i32, align 4
  %6 = alloca i32, align 4
  %7 = alloca i64, align 8
  %8 = alloca i64, align 8
  store i32 %0, ptr %5, align 4
  store i32 %1, ptr %6, align 4
  store i64 %2, ptr %7, align 8
  store i64 %3, ptr %8, align 8
  %9 = load i32, ptr %5, align 4
  %10 = load i32, ptr %6, align 4
  %11 = icmp sgt i32 %9, %10
  br i1 %11, label %22, label %12

12:                                               ; preds = %4
  %13 = load i32, ptr %5, align 4
  %14 = load i32, ptr %6, align 4
  %15 = icmp eq i32 %13, %14
  br i1 %15, label %16, label %20

16:                                               ; preds = %12
  %17 = load i64, ptr %7, align 8
  %18 = load i64, ptr %8, align 8
  %19 = icmp sgt i64 %17, %18
  br label %20

20:                                               ; preds = %16, %12
  %21 = phi i1 [ false, %12 ], [ %19, %16 ]
  br label %22

22:                                               ; preds = %20, %4
  %23 = phi i1 [ true, %4 ], [ %21, %20 ]
  ret i1 %23
}

; Function Attrs: mustprogress nounwind uwtable
define linkonce_odr noundef i32 @_ZN5faiss10popcount64Em(i64 noundef %0) #0 comdat {
  %2 = alloca i64, align 8
  store i64 %0, ptr %2, align 8
  %3 = load i64, ptr %2, align 8
  %4 = call i64 @llvm.ctpop.i64(i64 %3)
  %5 = trunc i64 %4 to i32
  ret i32 %5
}

; Function Attrs: mustprogress uwtable
define linkonce_odr void @_ZN5faiss16heap_replace_topINS_4CMaxIilEEEEvmPNT_1TEPNS3_2TIES4_S6_(i64 noundef %0, ptr noundef %1, ptr noundef %2, i32 noundef %3, i64 noundef %4) #1 comdat {
  %6 = alloca i64, align 8
  %7 = alloca ptr, align 8
  %8 = alloca ptr, align 8
  %9 = alloca i32, align 4
  %10 = alloca i64, align 8
  %11 = alloca i64, align 8
  %12 = alloca i64, align 8
  %13 = alloca i64, align 8
  store i64 %0, ptr %6, align 8
  store ptr %1, ptr %7, align 8
  store ptr %2, ptr %8, align 8
  store i32 %3, ptr %9, align 4
  store i64 %4, ptr %10, align 8
  %14 = load ptr, ptr %7, align 8
  %15 = getelementptr inbounds i32, ptr %14, i32 -1
  store ptr %15, ptr %7, align 8
  %16 = load ptr, ptr %8, align 8
  %17 = getelementptr inbounds i64, ptr %16, i32 -1
  store ptr %17, ptr %8, align 8
  store i64 1, ptr %11, align 8
  br label %18

18:                                               ; preds = %108, %5
  %19 = load i64, ptr %11, align 8
  %20 = shl i64 %19, 1
  store i64 %20, ptr %12, align 8
  %21 = load i64, ptr %12, align 8
  %22 = add i64 %21, 1
  store i64 %22, ptr %13, align 8
  %23 = load i64, ptr %12, align 8
  %24 = load i64, ptr %6, align 8
  %25 = icmp ugt i64 %23, %24
  br i1 %25, label %26, label %27

26:                                               ; preds = %18
  br label %109

27:                                               ; preds = %18
  %28 = load i64, ptr %13, align 8
  %29 = load i64, ptr %6, align 8
  %30 = add i64 %29, 1
  %31 = icmp eq i64 %28, %30
  br i1 %31, label %50, label %32

32:                                               ; preds = %27
  %33 = load ptr, ptr %7, align 8
  %34 = load i64, ptr %12, align 8
  %35 = getelementptr inbounds i32, ptr %33, i64 %34
  %36 = load i32, ptr %35, align 4
  %37 = load ptr, ptr %7, align 8
  %38 = load i64, ptr %13, align 8
  %39 = getelementptr inbounds i32, ptr %37, i64 %38
  %40 = load i32, ptr %39, align 4
  %41 = load ptr, ptr %8, align 8
  %42 = load i64, ptr %12, align 8
  %43 = getelementptr inbounds i64, ptr %41, i64 %42
  %44 = load i64, ptr %43, align 8
  %45 = load ptr, ptr %8, align 8
  %46 = load i64, ptr %13, align 8
  %47 = getelementptr inbounds i64, ptr %45, i64 %46
  %48 = load i64, ptr %47, align 8
  %49 = call noundef zeroext i1 @_ZN5faiss4CMaxIilE4cmp2Eiill(i32 noundef %36, i32 noundef %40, i64 noundef %44, i64 noundef %48)
  br i1 %49, label %50, label %79

50:                                               ; preds = %32, %27
  %51 = load i32, ptr %9, align 4
  %52 = load ptr, ptr %7, align 8
  %53 = load i64, ptr %12, align 8
  %54 = getelementptr inbounds i32, ptr %52, i64 %53
  %55 = load i32, ptr %54, align 4
  %56 = load i64, ptr %10, align 8
  %57 = load ptr, ptr %8, align 8
  %58 = load i64, ptr %12, align 8
  %59 = getelementptr inbounds i64, ptr %57, i64 %58
  %60 = load i64, ptr %59, align 8
  %61 = call noundef zeroext i1 @_ZN5faiss4CMaxIilE4cmp2Eiill(i32 noundef %51, i32 noundef %55, i64 noundef %56, i64 noundef %60)
  br i1 %61, label %62, label %63

62:                                               ; preds = %50
  br label %109

63:                                               ; preds = %50
  %64 = load ptr, ptr %7, align 8
  %65 = load i64, ptr %12, align 8
  %66 = getelementptr inbounds i32, ptr %64, i64 %65
  %67 = load i32, ptr %66, align 4
  %68 = load ptr, ptr %7, align 8
  %69 = load i64, ptr %11, align 8
  %70 = getelementptr inbounds i32, ptr %68, i64 %69
  store i32 %67, ptr %70, align 4
  %71 = load ptr, ptr %8, align 8
  %72 = load i64, ptr %12, align 8
  %73 = getelementptr inbounds i64, ptr %71, i64 %72
  %74 = load i64, ptr %73, align 8
  %75 = load ptr, ptr %8, align 8
  %76 = load i64, ptr %11, align 8
  %77 = getelementptr inbounds i64, ptr %75, i64 %76
  store i64 %74, ptr %77, align 8
  %78 = load i64, ptr %12, align 8
  store i64 %78, ptr %11, align 8
  br label %108

79:                                               ; preds = %32
  %80 = load i32, ptr %9, align 4
  %81 = load ptr, ptr %7, align 8
  %82 = load i64, ptr %13, align 8
  %83 = getelementptr inbounds i32, ptr %81, i64 %82
  %84 = load i32, ptr %83, align 4
  %85 = load i64, ptr %10, align 8
  %86 = load ptr, ptr %8, align 8
  %87 = load i64, ptr %13, align 8
  %88 = getelementptr inbounds i64, ptr %86, i64 %87
  %89 = load i64, ptr %88, align 8
  %90 = call noundef zeroext i1 @_ZN5faiss4CMaxIilE4cmp2Eiill(i32 noundef %80, i32 noundef %84, i64 noundef %85, i64 noundef %89)
  br i1 %90, label %91, label %92

91:                                               ; preds = %79
  br label %109

92:                                               ; preds = %79
  %93 = load ptr, ptr %7, align 8
  %94 = load i64, ptr %13, align 8
  %95 = getelementptr inbounds i32, ptr %93, i64 %94
  %96 = load i32, ptr %95, align 4
  %97 = load ptr, ptr %7, align 8
  %98 = load i64, ptr %11, align 8
  %99 = getelementptr inbounds i32, ptr %97, i64 %98
  store i32 %96, ptr %99, align 4
  %100 = load ptr, ptr %8, align 8
  %101 = load i64, ptr %13, align 8
  %102 = getelementptr inbounds i64, ptr %100, i64 %101
  %103 = load i64, ptr %102, align 8
  %104 = load ptr, ptr %8, align 8
  %105 = load i64, ptr %11, align 8
  %106 = getelementptr inbounds i64, ptr %104, i64 %105
  store i64 %103, ptr %106, align 8
  %107 = load i64, ptr %13, align 8
  store i64 %107, ptr %11, align 8
  br label %108

108:                                              ; preds = %92, %63
  br label %18, !llvm.loop !14

109:                                              ; preds = %91, %62, %26
  %110 = load i32, ptr %9, align 4
  %111 = load ptr, ptr %7, align 8
  %112 = load i64, ptr %11, align 8
  %113 = getelementptr inbounds i32, ptr %111, i64 %112
  store i32 %110, ptr %113, align 4
  %114 = load i64, ptr %10, align 8
  %115 = load ptr, ptr %8, align 8
  %116 = load i64, ptr %11, align 8
  %117 = getelementptr inbounds i64, ptr %115, i64 %116
  store i64 %114, ptr %117, align 8
  ret void
}

; Function Attrs: mustprogress nounwind uwtable
define linkonce_odr noundef i64 @_ZN5faiss8lo_buildEmm(i64 noundef %0, i64 noundef %1) #0 comdat {
  %3 = alloca i64, align 8
  %4 = alloca i64, align 8
  store i64 %0, ptr %3, align 8
  store i64 %1, ptr %4, align 8
  %5 = load i64, ptr %3, align 8
  %6 = shl i64 %5, 32
  %7 = load i64, ptr %4, align 8
  %8 = or i64 %6, %7
  ret i64 %8
}

; Function Attrs: mustprogress nounwind uwtable
define linkonce_odr noundef i32 @_ZNK5faiss16HammingComputer87hammingEPKh(ptr noundef nonnull align 8 dereferenceable(8) %0, ptr noundef %1) #0 comdat align 2 {
  %3 = alloca ptr, align 8
  %4 = alloca ptr, align 8
  store ptr %0, ptr %3, align 8
  store ptr %1, ptr %4, align 8
  %5 = load ptr, ptr %3, align 8
  %6 = load ptr, ptr %4, align 8
  %7 = load i64, ptr %6, align 8
  %8 = getelementptr inbounds %"struct.faiss::HammingComputer8", ptr %5, i32 0, i32 0
  %9 = load i64, ptr %8, align 8
  %10 = xor i64 %7, %9
  %11 = call noundef i32 @_ZN5faiss10popcount64Em(i64 noundef %10)
  ret i32 %11
}

; Function Attrs: mustprogress uwtable
define internal noundef i64 @_ZNK5faiss12_GLOBAL__N_118IVFBinaryScannerL2INS_16HammingComputer8EE10scan_codesEmPKhPKlPiPlm(ptr noundef nonnull align 8 dereferenceable(40) %0, i64 noundef %1, ptr noalias noundef %2, ptr noalias noundef %3, ptr noalias noundef %4, ptr noalias noundef %5, i64 noundef %6) unnamed_addr #1 align 2 {
  %8 = alloca ptr, align 8
  %9 = alloca i64, align 8
  %10 = alloca ptr, align 8
  %11 = alloca ptr, align 8
  %12 = alloca ptr, align 8
  %13 = alloca ptr, align 8
  %14 = alloca i64, align 8
  %15 = alloca i64, align 8
  %16 = alloca i64, align 8
  %17 = alloca i32, align 4
  %18 = alloca i64, align 8
  store ptr %0, ptr %8, align 8
  store i64 %1, ptr %9, align 8
  store ptr %2, ptr %10, align 8
  store ptr %3, ptr %11, align 8
  store ptr %4, ptr %12, align 8
  store ptr %5, ptr %13, align 8
  store i64 %6, ptr %14, align 8
  %19 = load ptr, ptr %8, align 8
  store i64 0, ptr %15, align 8
  store i64 0, ptr %16, align 8
  br label %20

20:                                               ; preds = %61, %7
  %21 = load i64, ptr %16, align 8
  %22 = load i64, ptr %9, align 8
  %23 = icmp ult i64 %21, %22
  br i1 %23, label %24, label %64

24:                                               ; preds = %20
  %25 = getelementptr inbounds %"struct.faiss::(anonymous namespace)::IVFBinaryScannerL2.58", ptr %19, i32 0, i32 1
  %26 = load ptr, ptr %10, align 8
  %27 = call noundef i32 @_ZNK5faiss16HammingComputer87hammingEPKh(ptr noundef nonnull align 8 dereferenceable(8) %25, ptr noundef %26)
  store i32 %27, ptr %17, align 4
  %28 = load i32, ptr %17, align 4
  %29 = load ptr, ptr %12, align 8
  %30 = getelementptr inbounds i32, ptr %29, i64 0
  %31 = load i32, ptr %30, align 4
  %32 = icmp ult i32 %28, %31
  br i1 %32, label %33, label %56

33:                                               ; preds = %24
  %34 = getelementptr inbounds %"struct.faiss::(anonymous namespace)::IVFBinaryScannerL2.58", ptr %19, i32 0, i32 3
  %35 = load i8, ptr %34, align 8
  %36 = trunc i8 %35 to i1
  br i1 %36, label %37, label %42

37:                                               ; preds = %33
  %38 = getelementptr inbounds %"struct.faiss::(anonymous namespace)::IVFBinaryScannerL2.58", ptr %19, i32 0, i32 4
  %39 = load i64, ptr %38, align 8
  %40 = load i64, ptr %16, align 8
  %41 = call noundef i64 @_ZN5faiss8lo_buildEmm(i64 noundef %39, i64 noundef %40)
  br label %47

42:                                               ; preds = %33
  %43 = load ptr, ptr %11, align 8
  %44 = load i64, ptr %16, align 8
  %45 = getelementptr inbounds i64, ptr %43, i64 %44
  %46 = load i64, ptr %45, align 8
  br label %47

47:                                               ; preds = %42, %37
  %48 = phi i64 [ %41, %37 ], [ %46, %42 ]
  store i64 %48, ptr %18, align 8
  %49 = load i64, ptr %14, align 8
  %50 = load ptr, ptr %12, align 8
  %51 = load ptr, ptr %13, align 8
  %52 = load i32, ptr %17, align 4
  %53 = load i64, ptr %18, align 8
  call void @_ZN5faiss16heap_replace_topINS_4CMaxIilEEEEvmPNT_1TEPNS3_2TIES4_S6_(i64 noundef %49, ptr noundef %50, ptr noundef %51, i32 noundef %52, i64 noundef %53)
  %54 = load i64, ptr %15, align 8
  %55 = add i64 %54, 1
  store i64 %55, ptr %15, align 8
  br label %56

56:                                               ; preds = %47, %24
  %57 = getelementptr inbounds %"struct.faiss::(anonymous namespace)::IVFBinaryScannerL2.58", ptr %19, i32 0, i32 2
  %58 = load i64, ptr %57, align 8
  %59 = load ptr, ptr %10, align 8
  %60 = getelementptr inbounds i8, ptr %59, i64 %58
  store ptr %60, ptr %10, align 8
  br label %61

61:                                               ; preds = %56
  %62 = load i64, ptr %16, align 8
  %63 = add i64 %62, 1
  store i64 %63, ptr %16, align 8
  br label %20, !llvm.loop !15

64:                                               ; preds = %20
  %65 = load i64, ptr %15, align 8
  ret i64 %65
}