; Function Attrs: mustprogress nofree norecurse nosync nounwind memory(read, argmem: readwrite, inaccessiblemem: none) uwtable
define internal noundef i64 @_ZNK5faiss12_GLOBAL__N_118IVFBinaryScannerL2INS_16HammingComputer8EE10scan_codesEmPKhPKlPiPlm(ptr nocapture noundef nonnull readonly align 8 dereferenceable(40) %0, i64 noundef %1, ptr noalias nocapture noundef readonly %2, ptr noalias nocapture noundef readonly %3, ptr noalias nocapture noundef %4, ptr noalias nocapture noundef %5, i64 noundef %6) unnamed_addr #15 align 2 {
  %.not25 = icmp eq i64 %1, 0
  br i1 %.not25, label %._crit_edge, label %.lr.ph

.lr.ph:                                           ; preds = %7
  %8 = getelementptr inbounds i8, ptr %0, i64 8
  %9 = load i64, ptr %8, align 8
  %10 = getelementptr inbounds i8, ptr %0, i64 24
  %11 = load i8, ptr %10, align 8
  %.fr26 = freeze i8 %11
  %12 = and i8 %.fr26, 1
  %.not = icmp eq i8 %12, 0
  %13 = getelementptr inbounds i8, ptr %0, i64 32
  %14 = load i64, ptr %13, align 8
  %15 = shl i64 %14, 32
  %16 = getelementptr inbounds i8, ptr %4, i64 -4
  %17 = getelementptr inbounds i8, ptr %5, i64 -8
  %18 = icmp ult i64 %6, 2
  %.phi.trans.insert.i = getelementptr inbounds i32, ptr %16, i64 %6
  %19 = getelementptr inbounds i8, ptr %0, i64 16
  %20 = load i64, ptr %19, align 8
  br i1 %18, label %.lr.ph.split.us, label %.lr.ph.split

.lr.ph.split.us:                                  ; preds = %.lr.ph
  %.promoted = load i32, ptr %4, align 4
  br i1 %.not, label %.lr.ph.split.us.split.us, label %.lr.ph.split.us.split

.lr.ph.split.us.split.us:                         ; preds = %.lr.ph.split.us, %30
  %21 = phi i32 [ %31, %30 ], [ %.promoted, %.lr.ph.split.us ]
  %.023.us.us = phi ptr [ %32, %30 ], [ %2, %.lr.ph.split.us ]
  %.01722.us.us = phi i64 [ %.1.us.us, %30 ], [ 0, %.lr.ph.split.us ]
  %.01820.us.us = phi i64 [ %33, %30 ], [ 0, %.lr.ph.split.us ]
  %22 = load i64, ptr %.023.us.us, align 8
  %23 = xor i64 %9, %22
  %24 = tail call i64 @llvm.ctpop.i64(i64 %23), !range !210
  %25 = trunc i64 %24 to i32
  %26 = icmp ugt i32 %21, %25
  br i1 %26, label %_ZN5faiss16heap_replace_topINS_4CMaxIilEEEEvmPNT_1TEPNS3_2TIES4_S6_.exit.us.us, label %30

_ZN5faiss16heap_replace_topINS_4CMaxIilEEEEvmPNT_1TEPNS3_2TIES4_S6_.exit.us.us: ; preds = %.lr.ph.split.us.split.us
  %27 = getelementptr inbounds i64, ptr %3, i64 %.01820.us.us
  %28 = load i64, ptr %27, align 8
  store i32 %25, ptr %4, align 4
  store i64 %28, ptr %5, align 8
  %29 = add i64 %.01722.us.us, 1
  br label %30

30:                                               ; preds = %_ZN5faiss16heap_replace_topINS_4CMaxIilEEEEvmPNT_1TEPNS3_2TIES4_S6_.exit.us.us, %.lr.ph.split.us.split.us
  %31 = phi i32 [ %25, %_ZN5faiss16heap_replace_topINS_4CMaxIilEEEEvmPNT_1TEPNS3_2TIES4_S6_.exit.us.us ], [ %21, %.lr.ph.split.us.split.us ]
  %.1.us.us = phi i64 [ %29, %_ZN5faiss16heap_replace_topINS_4CMaxIilEEEEvmPNT_1TEPNS3_2TIES4_S6_.exit.us.us ], [ %.01722.us.us, %.lr.ph.split.us.split.us ]
  %32 = getelementptr inbounds i8, ptr %.023.us.us, i64 %20
  %33 = add nuw i64 %.01820.us.us, 1
  %exitcond30.not = icmp eq i64 %33, %1
  br i1 %exitcond30.not, label %._crit_edge, label %.lr.ph.split.us.split.us, !llvm.loop !211

.lr.ph.split.us.split:                            ; preds = %.lr.ph.split.us, %42
  %34 = phi i32 [ %43, %42 ], [ %.promoted, %.lr.ph.split.us ]
  %.023.us = phi ptr [ %44, %42 ], [ %2, %.lr.ph.split.us ]
  %.01722.us = phi i64 [ %.1.us, %42 ], [ 0, %.lr.ph.split.us ]
  %.01820.us = phi i64 [ %45, %42 ], [ 0, %.lr.ph.split.us ]
  %35 = load i64, ptr %.023.us, align 8
  %36 = xor i64 %9, %35
  %37 = tail call i64 @llvm.ctpop.i64(i64 %36), !range !210
  %38 = trunc i64 %37 to i32
  %39 = icmp ugt i32 %34, %38
  br i1 %39, label %_ZN5faiss16heap_replace_topINS_4CMaxIilEEEEvmPNT_1TEPNS3_2TIES4_S6_.exit.us, label %42

_ZN5faiss16heap_replace_topINS_4CMaxIilEEEEvmPNT_1TEPNS3_2TIES4_S6_.exit.us: ; preds = %.lr.ph.split.us.split
  %40 = or i64 %15, %.01820.us
  store i32 %38, ptr %4, align 4
  store i64 %40, ptr %5, align 8
  %41 = add i64 %.01722.us, 1
  br label %42

42:                                               ; preds = %_ZN5faiss16heap_replace_topINS_4CMaxIilEEEEvmPNT_1TEPNS3_2TIES4_S6_.exit.us, %.lr.ph.split.us.split
  %43 = phi i32 [ %38, %_ZN5faiss16heap_replace_topINS_4CMaxIilEEEEvmPNT_1TEPNS3_2TIES4_S6_.exit.us ], [ %34, %.lr.ph.split.us.split ]
  %.1.us = phi i64 [ %41, %_ZN5faiss16heap_replace_topINS_4CMaxIilEEEEvmPNT_1TEPNS3_2TIES4_S6_.exit.us ], [ %.01722.us, %.lr.ph.split.us.split ]
  %44 = getelementptr inbounds i8, ptr %.023.us, i64 %20
  %45 = add nuw i64 %.01820.us, 1
  %exitcond29.not = icmp eq i64 %45, %1
  br i1 %exitcond29.not, label %._crit_edge, label %.lr.ph.split.us.split, !llvm.loop !211

.lr.ph.split:                                     ; preds = %.lr.ph, %97
  %.023 = phi ptr [ %98, %97 ], [ %2, %.lr.ph ]
  %.01722 = phi i64 [ %.1, %97 ], [ 0, %.lr.ph ]
  %.01820 = phi i64 [ %99, %97 ], [ 0, %.lr.ph ]
  %46 = load i64, ptr %.023, align 8
  %47 = xor i64 %9, %46
  %48 = tail call i64 @llvm.ctpop.i64(i64 %47), !range !210
  %49 = trunc i64 %48 to i32
  %50 = load i32, ptr %4, align 4
  %51 = icmp ugt i32 %50, %49
  br i1 %51, label %52, label %97

52:                                               ; preds = %.lr.ph.split
  br i1 %.not, label %55, label %53

53:                                               ; preds = %52
  %54 = or i64 %15, %.01820
  br label %.lr.ph.preheader.i

55:                                               ; preds = %52
  %56 = getelementptr inbounds i64, ptr %3, i64 %.01820
  %57 = load i64, ptr %56, align 8
  br label %.lr.ph.preheader.i

.lr.ph.preheader.i:                               ; preds = %55, %53
  %58 = phi i64 [ %54, %53 ], [ %57, %55 ]
  br label %.lr.ph.i

.lr.ph.i:                                         ; preds = %87, %.lr.ph.preheader.i
  %59 = phi i64 [ %92, %87 ], [ 3, %.lr.ph.preheader.i ]
  %60 = phi i64 [ %91, %87 ], [ 2, %.lr.ph.preheader.i ]
  %.056.i = phi i64 [ %.1.i, %87 ], [ 1, %.lr.ph.preheader.i ]
  %61 = icmp eq i64 %60, %6
  br i1 %61, label %.lr.ph._ZN5faiss4CMaxIilE4cmp2Eiill.exit.thread_crit_edge.i, label %62

.lr.ph._ZN5faiss4CMaxIilE4cmp2Eiill.exit.thread_crit_edge.i: ; preds = %.lr.ph.i
  %.pre.i = load i32, ptr %.phi.trans.insert.i, align 4
  br label %_ZN5faiss4CMaxIilE4cmp2Eiill.exit.thread.i

62:                                               ; preds = %.lr.ph.i
  %63 = getelementptr inbounds i32, ptr %16, i64 %60
  %64 = load i32, ptr %63, align 4
  %65 = getelementptr inbounds i32, ptr %16, i64 %59
  %66 = load i32, ptr %65, align 4
  %67 = getelementptr inbounds i64, ptr %17, i64 %59
  %68 = load i64, ptr %67, align 8
  %69 = icmp sgt i32 %64, %66
  br i1 %69, label %_ZN5faiss4CMaxIilE4cmp2Eiill.exit.thread.i, label %_ZN5faiss4CMaxIilE4cmp2Eiill.exit.i

_ZN5faiss4CMaxIilE4cmp2Eiill.exit.i:              ; preds = %62
  %70 = getelementptr inbounds i64, ptr %17, i64 %60
  %71 = load i64, ptr %70, align 8
  %72 = icmp eq i32 %64, %66
  %73 = icmp sgt i64 %71, %68
  %74 = and i1 %72, %73
  br i1 %74, label %_ZN5faiss4CMaxIilE4cmp2Eiill.exit.thread.i, label %82

_ZN5faiss4CMaxIilE4cmp2Eiill.exit.thread.i:       ; preds = %_ZN5faiss4CMaxIilE4cmp2Eiill.exit.i, %62, %.lr.ph._ZN5faiss4CMaxIilE4cmp2Eiill.exit.thread_crit_edge.i
  %75 = phi i32 [ %.pre.i, %.lr.ph._ZN5faiss4CMaxIilE4cmp2Eiill.exit.thread_crit_edge.i ], [ %64, %62 ], [ %64, %_ZN5faiss4CMaxIilE4cmp2Eiill.exit.i ]
  %76 = icmp slt i32 %75, %49
  br i1 %76, label %_ZN5faiss16heap_replace_topINS_4CMaxIilEEEEvmPNT_1TEPNS3_2TIES4_S6_.exit.loopexit, label %_ZN5faiss4CMaxIilE4cmp2Eiill.exit54.i

_ZN5faiss4CMaxIilE4cmp2Eiill.exit54.i:            ; preds = %_ZN5faiss4CMaxIilE4cmp2Eiill.exit.thread.i
  %77 = getelementptr inbounds i64, ptr %17, i64 %60
  %78 = load i64, ptr %77, align 8
  %79 = icmp eq i32 %75, %49
  %80 = icmp slt i64 %78, %58
  %81 = and i1 %79, %80
  br i1 %81, label %_ZN5faiss16heap_replace_topINS_4CMaxIilEEEEvmPNT_1TEPNS3_2TIES4_S6_.exit.loopexit, label %87

82:                                               ; preds = %_ZN5faiss4CMaxIilE4cmp2Eiill.exit.i
  %83 = icmp slt i32 %66, %49
  br i1 %83, label %_ZN5faiss16heap_replace_topINS_4CMaxIilEEEEvmPNT_1TEPNS3_2TIES4_S6_.exit.loopexit, label %_ZN5faiss4CMaxIilE4cmp2Eiill.exit55.i

_ZN5faiss4CMaxIilE4cmp2Eiill.exit55.i:            ; preds = %82
  %84 = icmp eq i32 %66, %49
  %85 = icmp slt i64 %68, %58
  %86 = and i1 %84, %85
  br i1 %86, label %_ZN5faiss16heap_replace_topINS_4CMaxIilEEEEvmPNT_1TEPNS3_2TIES4_S6_.exit.loopexit, label %87

87:                                               ; preds = %_ZN5faiss4CMaxIilE4cmp2Eiill.exit55.i, %_ZN5faiss4CMaxIilE4cmp2Eiill.exit54.i
  %88 = phi i64 [ %78, %_ZN5faiss4CMaxIilE4cmp2Eiill.exit54.i ], [ %68, %_ZN5faiss4CMaxIilE4cmp2Eiill.exit55.i ]
  %.sink.i = phi i32 [ %75, %_ZN5faiss4CMaxIilE4cmp2Eiill.exit54.i ], [ %66, %_ZN5faiss4CMaxIilE4cmp2Eiill.exit55.i ]
  %.1.i = phi i64 [ %60, %_ZN5faiss4CMaxIilE4cmp2Eiill.exit54.i ], [ %59, %_ZN5faiss4CMaxIilE4cmp2Eiill.exit55.i ]
  %89 = getelementptr inbounds i32, ptr %16, i64 %.056.i
  store i32 %.sink.i, ptr %89, align 4
  %90 = getelementptr inbounds i64, ptr %17, i64 %.056.i
  store i64 %88, ptr %90, align 8
  %91 = shl i64 %.1.i, 1
  %92 = or disjoint i64 %91, 1
  %93 = icmp ugt i64 %91, %6
  br i1 %93, label %_ZN5faiss16heap_replace_topINS_4CMaxIilEEEEvmPNT_1TEPNS3_2TIES4_S6_.exit.loopexit, label %.lr.ph.i, !llvm.loop !208

_ZN5faiss16heap_replace_topINS_4CMaxIilEEEEvmPNT_1TEPNS3_2TIES4_S6_.exit.loopexit: ; preds = %87, %_ZN5faiss4CMaxIilE4cmp2Eiill.exit55.i, %82, %_ZN5faiss4CMaxIilE4cmp2Eiill.exit54.i, %_ZN5faiss4CMaxIilE4cmp2Eiill.exit.thread.i
  %.0.lcssa.i.ph = phi i64 [ %.1.i, %87 ], [ %.056.i, %_ZN5faiss4CMaxIilE4cmp2Eiill.exit54.i ], [ %.056.i, %_ZN5faiss4CMaxIilE4cmp2Eiill.exit55.i ], [ %.056.i, %_ZN5faiss4CMaxIilE4cmp2Eiill.exit.thread.i ], [ %.056.i, %82 ]
  %94 = getelementptr inbounds i32, ptr %16, i64 %.0.lcssa.i.ph
  store i32 %49, ptr %94, align 4
  %95 = getelementptr inbounds i64, ptr %17, i64 %.0.lcssa.i.ph
  store i64 %58, ptr %95, align 8
  %96 = add i64 %.01722, 1
  br label %97

97:                                               ; preds = %_ZN5faiss16heap_replace_topINS_4CMaxIilEEEEvmPNT_1TEPNS3_2TIES4_S6_.exit.loopexit, %.lr.ph.split
  %.1 = phi i64 [ %96, %_ZN5faiss16heap_replace_topINS_4CMaxIilEEEEvmPNT_1TEPNS3_2TIES4_S6_.exit.loopexit ], [ %.01722, %.lr.ph.split ]
  %98 = getelementptr inbounds i8, ptr %.023, i64 %20
  %99 = add nuw i64 %.01820, 1
  %exitcond.not = icmp eq i64 %99, %1
  br i1 %exitcond.not, label %._crit_edge, label %.lr.ph.split, !llvm.loop !211

._crit_edge:                                      ; preds = %97, %42, %30, %7
  %.017.lcssa = phi i64 [ 0, %7 ], [ %.1.us.us, %30 ], [ %.1.us, %42 ], [ %.1, %97 ]
  ret i64 %.017.lcssa
}